Certificate:
    Data:
        Version: 3 (0x2)
        Serial Number: 1 (0x1)
        Signature Algorithm: sha512WithRSAEncryption
        Issuer: CN=main, C=RU, ST=NOV, L=Novosibirsk, O=INP, OU=INP/emailAddress=pisarev@inp.nsk.su
        Validity
            Not Before: May 29 12:32:14 2020 GMT
            Not After : May 28 12:32:14 2025 GMT
        Subject: CN=test1, C=RU, ST=NOV, L=Novosibirsk, O=INP, OU=INP/emailAddress=pisarev@inp.nsk.su
        Subject Public Key Info:
            Public Key Algorithm: rsaEncryption
                RSA Public-Key: (2048 bit)
                Modulus:
                    00:ec:69:9b:17:c3:5d:1b:90:66:a1:1d:17:4e:a2:
                    a5:0c:20:d7:74:4d:9a:9a:cc:16:23:49:88:ca:1d:
                    2b:35:e0:52:93:bd:8a:32:50:f8:4c:6a:c1:cf:a1:
                    9e:4f:49:11:9c:4e:eb:50:d7:71:f7:86:a1:44:32:
                    2c:8d:af:90:d4:e2:a6:c7:56:bc:77:62:82:84:be:
                    34:83:2b:c7:bd:de:4c:ad:3e:f0:5c:6b:06:de:cf:
                    06:40:d8:90:7d:dc:74:17:94:dd:f1:fd:9a:31:7a:
                    79:6d:de:54:7e:59:a2:49:81:4d:89:4f:5c:31:fc:
                    b0:d5:20:0a:cb:d4:ef:65:9c:3e:df:eb:8f:57:9b:
                    03:61:a6:d0:66:86:c2:93:d6:d9:69:ad:d8:a1:ca:
                    bb:04:27:b7:c8:ca:f2:31:c8:38:0c:ff:67:a1:7b:
                    e4:2a:8b:06:5a:af:cb:df:76:d7:b4:23:0c:9e:f5:
                    3d:05:54:d2:c8:70:a6:49:5c:39:67:a0:58:ff:74:
                    2d:e2:d2:d0:39:e3:31:c3:88:57:74:0b:b2:e4:ed:
                    08:65:20:2c:41:26:9f:2c:3c:26:8e:99:dc:dc:c6:
                    7c:14:af:1c:75:be:ab:f8:19:e8:e1:b7:a5:78:d3:
                    11:50:76:36:64:90:f4:90:a6:04:dc:f7:e3:eb:6e:
                    5f:cb
                Exponent: 65537 (0x10001)
        X509v3 extensions:
            X509v3 Basic Constraints: critical
                CA:FALSE
            X509v3 Key Usage: critical
                Digital Signature, Non Repudiation, Key Encipherment
            X509v3 Subject Key Identifier: 
                1F:FA:85:93:DA:8B:D9:9B:3A:CF:32:61:D4:D8:3C:11:69:78:92:91
            X509v3 Authority Key Identifier: 
                keyid:93:84:75:E6:D6:46:26:0D:EC:9D:1F:AE:F0:E6:0D:FD:CA:D1:62:6A
                DirName:/CN=main/C=RU/ST=NOV/L=Novosibirsk/O=INP/OU=INP/emailAddress=pisarev@inp.nsk.su
                serial:0B:87:4B:20:3E:D9:55:F8:F5:43:2E:F2:08:E1:63:B6:D1:60:5B:B8

            X509v3 Extended Key Usage: critical
                TLS Web Server Authentication
            X509v3 Subject Alternative Name: 
                email:pisarev@inp.nsk.su
    Signature Algorithm: sha512WithRSAEncryption
         02:71:e1:d5:59:9a:04:3a:e7:1d:8d:01:40:a3:6d:a9:f5:9d:
         c9:43:70:01:64:09:9f:6b:e1:e1:42:7b:e5:6d:84:c6:f3:95:
         25:f8:ff:ec:01:f2:54:53:98:d5:b7:0d:52:8f:e8:4f:0a:04:
         5a:69:20:fb:ed:a7:15:40:40:ba:92:b1:c5:04:8a:68:ca:b9:
         c2:56:85:9b:14:1f:48:15:c4:a1:8d:b0:1e:d8:dd:62:bc:e9:
         13:0f:ab:08:c7:ec:0b:08:0c:d5:bf:f0:84:21:c9:a1:62:f1:
         57:12:f0:d9:b0:3c:38:d2:9a:de:ea:3e:19:0b:f7:0c:10:29:
         1d:65:dd:a7:11:7c:c9:09:73:5e:31:f6:c4:d5:1c:e6:99:64:
         41:e3:74:60:be:50:de:5c:8c:ea:88:ac:9c:d9:1f:e4:19:78:
         da:5d:c6:13:42:dd:26:83:49:85:99:9d:b7:4f:64:4e:2d:6a:
         25:1b:df:cb:14:8f:f8:30:aa:cf:88:4f:1c:c6:00:e4:ca:ed:
         15:b4:32:d8:ae:d3:57:74:36:ee:11:9c:42:c0:39:76:f8:0c:
         05:db:fa:7c:0c:24:97:77:f0:e1:84:ac:5b:18:06:74:75:cc:
         9a:89:96:fb:77:02:ba:0e:42:65:e4:31:b8:7a:ca:6a:e9:77:
         c0:f3:7a:1b
-----BEGIN CERTIFICATE-----
MIIEtjCCA56gAwIBAgIBATANBgkqhkiG9w0BAQ0FADB/MQ0wCwYDVQQDEwRtYWlu
MQswCQYDVQQGEwJSVTEMMAoGA1UECBMDTk9WMRQwEgYDVQQHEwtOb3Zvc2liaXJz
azEMMAoGA1UEChMDSU5QMQwwCgYDVQQLEwNJTlAxITAfBgkqhkiG9w0BCQEWEnBp
c2FyZXZAaW5wLm5zay5zdTAeFw0yMDA1MjkxMjMyMTRaFw0yNTA1MjgxMjMyMTRa
MIGAMQ4wDAYDVQQDEwV0ZXN0MTELMAkGA1UEBhMCUlUxDDAKBgNVBAgTA05PVjEU
MBIGA1UEBxMLTm92b3NpYmlyc2sxDDAKBgNVBAoTA0lOUDEMMAoGA1UECxMDSU5Q
MSEwHwYJKoZIhvcNAQkBFhJwaXNhcmV2QGlucC5uc2suc3UwggEiMA0GCSqGSIb3
DQEBAQUAA4IBDwAwggEKAoIBAQDsaZsXw10bkGahHRdOoqUMINd0TZqazBYjSYjK
HSs14FKTvYoyUPhMasHPoZ5PSRGcTutQ13H3hqFEMiyNr5DU4qbHVrx3YoKEvjSD
K8e93kytPvBcawbezwZA2JB93HQXlN3x/Zoxenlt3lR+WaJJgU2JT1wx/LDVIArL
1O9lnD7f649XmwNhptBmhsKT1tlprdihyrsEJ7fIyvIxyDgM/2ehe+QqiwZar8vf
dte0Iwye9T0FVNLIcKZJXDlnoFj/dC3i0tA54zHDiFd0C7Lk7QhlICxBJp8sPCaO
mdzcxnwUrxx1vqv4Gejht6V40xFQdjZkkPSQpgTc9+Prbl/LAgMBAAGjggE5MIIB
NTAMBgNVHRMBAf8EAjAAMA4GA1UdDwEB/wQEAwIF4DAdBgNVHQ4EFgQUH/qFk9qL
2Zs6zzJh1Ng8EWl4kpEwgb4GA1UdIwSBtjCBs4AUk4R15tZGJg3snR+u8OYN/crR
YmqhgYSkgYEwfzENMAsGA1UEAxMEbWFpbjELMAkGA1UEBhMCUlUxDDAKBgNVBAgT
A05PVjEUMBIGA1UEBxMLTm92b3NpYmlyc2sxDDAKBgNVBAoTA0lOUDEMMAoGA1UE
CxMDSU5QMSEwHwYJKoZIhvcNAQkBFhJwaXNhcmV2QGlucC5uc2suc3WCFAuHSyA+
2VX49UMu8gjhY7bRYFu4MBYGA1UdJQEB/wQMMAoGCCsGAQUFBwMBMB0GA1UdEQQW
MBSBEnBpc2FyZXZAaW5wLm5zay5zdTANBgkqhkiG9w0BAQ0FAAOCAQEAAnHh1Vma
BDrnHY0BQKNtqfWdyUNwAWQJn2vh4UJ75W2ExvOVJfj/7AHyVFOY1bcNUo/oTwoE
Wmkg++2nFUBAupKxxQSKaMq5wlaFmxQfSBXEoY2wHtjdYrzpEw+rCMfsCwgM1b/w
hCHJoWLxVxLw2bA8ONKa3uo+GQv3DBApHWXdpxF8yQlzXjH2xNUc5plkQeN0YL5Q
3lyM6oisnNkf5Bl42l3GE0LdJoNJhZmdt09kTi1qJRvfyxSP+DCqz4hPHMYA5Mrt
FbQy2K7TV3Q27hGcQsA5dvgMBdv6fAwkl3fw4YSsWxgGdHXMmomW+3cCug5CZeQx
uHrKaul3wPN6Gw==
-----END CERTIFICATE-----
