Certificate:
    Data:
        Version: 3 (0x2)
        Serial Number: 2 (0x2)
        Signature Algorithm: sha512WithRSAEncryption
        Issuer: CN=main, C=RU, ST=NOV, L=Novosibirsk, O=INP, OU=INP/emailAddress=pisarev@inp.nsk.su
        Validity
            Not Before: May 29 12:40:11 2020 GMT
            Not After : May 28 12:40:11 2025 GMT
        Subject: CN=test1, C=RU, ST=NOV, L=Novosibirsk, O=INP, OU=INP/emailAddress=pisarev@inp.nsk.su
        Subject Public Key Info:
            Public Key Algorithm: rsaEncryption
                RSA Public-Key: (2048 bit)
                Modulus:
                    00:ae:2f:7e:93:45:a5:c0:1e:29:5e:72:fd:d6:2a:
                    75:f9:b6:85:9f:02:1c:66:07:39:00:a9:c5:89:e1:
                    27:d9:7d:08:e5:9a:37:79:03:fc:5a:01:22:f6:da:
                    f1:ce:01:2d:28:1f:32:1a:35:13:5f:22:09:f6:71:
                    de:2a:08:81:66:d6:90:e9:c4:d5:f6:f6:4b:c7:a4:
                    72:b3:d8:68:87:b3:16:b8:41:e1:b4:32:23:6d:a1:
                    4e:5b:58:96:80:ef:53:4f:c3:21:a8:ff:4d:ef:5e:
                    ac:6f:d2:09:78:94:ec:97:ca:c8:f0:5a:7a:8d:64:
                    d7:70:d3:b8:b0:16:24:62:4f:a2:88:9b:9f:58:18:
                    8a:91:74:5d:1c:3e:63:1e:31:49:0d:9d:69:0a:6a:
                    83:95:d4:24:24:9a:65:af:5f:05:d4:58:8b:ed:7d:
                    79:af:3c:e0:6d:05:b5:94:64:e2:e9:f5:8f:74:4a:
                    fa:75:8e:3a:fd:70:6c:3a:b7:5a:9f:85:8d:f9:01:
                    1e:44:18:79:21:18:27:1f:70:67:44:df:39:b4:94:
                    da:43:af:e6:3b:46:81:fc:d8:87:00:2b:fe:40:f0:
                    07:1d:0f:ee:9d:26:11:ab:11:55:88:44:40:38:8d:
                    73:0f:99:f5:3b:86:e2:26:d6:16:c4:ab:37:55:59:
                    6b:7f
                Exponent: 65537 (0x10001)
        X509v3 extensions:
            X509v3 Basic Constraints: critical
                CA:FALSE
            X509v3 Key Usage: critical
                Digital Signature, Non Repudiation, Key Encipherment
            X509v3 Subject Key Identifier: 
                EF:C6:EE:2E:27:63:B3:DF:8A:4B:FB:FD:F2:09:68:FB:A5:AC:15:3A
            X509v3 Authority Key Identifier: 
                keyid:93:84:75:E6:D6:46:26:0D:EC:9D:1F:AE:F0:E6:0D:FD:CA:D1:62:6A
                DirName:/CN=main/C=RU/ST=NOV/L=Novosibirsk/O=INP/OU=INP/emailAddress=pisarev@inp.nsk.su
                serial:0B:87:4B:20:3E:D9:55:F8:F5:43:2E:F2:08:E1:63:B6:D1:60:5B:B8

            X509v3 Extended Key Usage: critical
                TLS Web Server Authentication
            X509v3 Subject Alternative Name: 
                email:pisarev@inp.nsk.su
    Signature Algorithm: sha512WithRSAEncryption
         32:38:f7:05:10:e9:14:5a:a0:3e:56:de:21:60:6d:44:5c:e6:
         ce:0f:dc:6e:25:b1:1e:21:76:52:f0:fa:da:1d:81:43:ac:a2:
         e3:24:87:05:29:be:30:a7:c6:9a:8c:11:91:59:89:78:af:79:
         d4:f3:a7:d8:72:41:b6:fc:d6:48:ab:ff:0b:d8:cc:cc:93:c2:
         cf:04:a9:e6:5d:a6:22:dd:b4:99:00:ec:26:8e:0a:64:8f:26:
         af:de:5e:5a:67:ac:54:9b:a4:db:78:5a:46:1b:81:13:d6:27:
         b7:e7:d9:e7:87:94:06:d2:e8:77:94:ab:0a:6c:c7:ec:63:f1:
         29:ae:d7:ff:ee:9c:29:da:37:d8:f4:f3:d5:3e:f1:a2:12:27:
         4e:d1:cf:40:12:fa:29:f9:27:df:56:ce:26:e1:60:3e:a9:56:
         ee:b8:3c:83:b6:7e:85:91:42:c3:3c:66:05:f1:1d:04:52:b3:
         37:85:5b:57:5a:69:de:aa:99:27:4b:c1:5b:73:f9:4e:33:b0:
         05:2f:83:57:53:db:75:29:1f:ce:e1:28:0d:07:6e:5e:4e:a2:
         90:09:97:ed:4b:4c:cf:33:0f:be:14:d8:dd:b0:78:e7:7a:c4:
         05:13:59:c2:ae:4d:39:d7:c2:57:0c:fd:9b:90:fb:4c:16:ca:
         3e:b6:ca:27
-----BEGIN CERTIFICATE-----
MIIEtjCCA56gAwIBAgIBAjANBgkqhkiG9w0BAQ0FADB/MQ0wCwYDVQQDEwRtYWlu
MQswCQYDVQQGEwJSVTEMMAoGA1UECBMDTk9WMRQwEgYDVQQHEwtOb3Zvc2liaXJz
azEMMAoGA1UEChMDSU5QMQwwCgYDVQQLEwNJTlAxITAfBgkqhkiG9w0BCQEWEnBp
c2FyZXZAaW5wLm5zay5zdTAeFw0yMDA1MjkxMjQwMTFaFw0yNTA1MjgxMjQwMTFa
MIGAMQ4wDAYDVQQDEwV0ZXN0MTELMAkGA1UEBhMCUlUxDDAKBgNVBAgTA05PVjEU
MBIGA1UEBxMLTm92b3NpYmlyc2sxDDAKBgNVBAoTA0lOUDEMMAoGA1UECxMDSU5Q
MSEwHwYJKoZIhvcNAQkBFhJwaXNhcmV2QGlucC5uc2suc3UwggEiMA0GCSqGSIb3
DQEBAQUAA4IBDwAwggEKAoIBAQCuL36TRaXAHilecv3WKnX5toWfAhxmBzkAqcWJ
4SfZfQjlmjd5A/xaASL22vHOAS0oHzIaNRNfIgn2cd4qCIFm1pDpxNX29kvHpHKz
2GiHsxa4QeG0MiNtoU5bWJaA71NPwyGo/03vXqxv0gl4lOyXysjwWnqNZNdw07iw
FiRiT6KIm59YGIqRdF0cPmMeMUkNnWkKaoOV1CQkmmWvXwXUWIvtfXmvPOBtBbWU
ZOLp9Y90Svp1jjr9cGw6t1qfhY35AR5EGHkhGCcfcGdE3zm0lNpDr+Y7RoH82IcA
K/5A8AcdD+6dJhGrEVWIREA4jXMPmfU7huIm1hbEqzdVWWt/AgMBAAGjggE5MIIB
NTAMBgNVHRMBAf8EAjAAMA4GA1UdDwEB/wQEAwIF4DAdBgNVHQ4EFgQU78buLidj
s9+KS/v98glo+6WsFTowgb4GA1UdIwSBtjCBs4AUk4R15tZGJg3snR+u8OYN/crR
YmqhgYSkgYEwfzENMAsGA1UEAxMEbWFpbjELMAkGA1UEBhMCUlUxDDAKBgNVBAgT
A05PVjEUMBIGA1UEBxMLTm92b3NpYmlyc2sxDDAKBgNVBAoTA0lOUDEMMAoGA1UE
CxMDSU5QMSEwHwYJKoZIhvcNAQkBFhJwaXNhcmV2QGlucC5uc2suc3WCFAuHSyA+
2VX49UMu8gjhY7bRYFu4MBYGA1UdJQEB/wQMMAoGCCsGAQUFBwMBMB0GA1UdEQQW
MBSBEnBpc2FyZXZAaW5wLm5zay5zdTANBgkqhkiG9w0BAQ0FAAOCAQEAMjj3BRDp
FFqgPlbeIWBtRFzmzg/cbiWxHiF2UvD62h2BQ6yi4ySHBSm+MKfGmowRkVmJeK95
1POn2HJBtvzWSKv/C9jMzJPCzwSp5l2mIt20mQDsJo4KZI8mr95eWmesVJuk23ha
RhuBE9Ynt+fZ54eUBtLod5SrCmzH7GPxKa7X/+6cKdo32PTz1T7xohInTtHPQBL6
Kfkn31bOJuFgPqlW7rg8g7Z+hZFCwzxmBfEdBFKzN4VbV1pp3qqZJ0vBW3P5TjOw
BS+DV1PbdSkfzuEoDQduXk6ikAmX7UtMzzMPvhTY3bB453rEBRNZwq5NOdfCVwz9
m5D7TBbKPrbKJw==
-----END CERTIFICATE-----
